target datalayout = "e-m:e-p270:32:32-p271:32:32-p272:64:64-i64:64-i128:128-f80:128-n8:16:32:64-S128"
target triple = "x86_64-pc-linux-gnu"

%class.DataLayout = type { %union.anon, [1 x i64] }
%union.anon = type { i64 }
%class.ProfileData = type { ptr, ptr }

@.str.12 = private unnamed_addr constant [12 x i8] c"CounterData\00", align 1
@.str.13 = private unnamed_addr constant [10 x i8] c"count(%u)\00", align 1

; Function Attrs: mustprogress nounwind uwtable
define linkonce_odr hidden noundef i64 @_ZNK10DataLayout7cell_atEi(ptr noundef nonnull align 8 dereferenceable(16) %0, i32 noundef %1) #1 comdat align 2 {
  %3 = alloca ptr, align 8
  %4 = alloca i32, align 4
  store ptr %0, ptr %3, align 8
  store i32 %1, ptr %4, align 4
  %5 = load ptr, ptr %3, align 8
  %6 = getelementptr inbounds %class.DataLayout, ptr %5, i32 0, i32 1
  %7 = load i32, ptr %4, align 4
  %8 = sext i32 %7 to i64
  %9 = getelementptr inbounds [1 x i64], ptr %6, i64 0, i64 %8
  %10 = load i64, ptr %9, align 8
  ret i64 %10
}

; Function Attrs: mustprogress nounwind uwtable
define linkonce_odr hidden noundef ptr @_ZNK11ProfileData4dataEv(ptr noundef nonnull align 8 dereferenceable(16) %0) #1 comdat align 2 {
  %2 = alloca ptr, align 8
  store ptr %0, ptr %2, align 8
  %3 = load ptr, ptr %2, align 8
  %4 = getelementptr inbounds %class.ProfileData, ptr %3, i32 0, i32 1
  %5 = load ptr, ptr %4, align 8
  ret ptr %5
}

; Function Attrs: mustprogress nounwind uwtable
define linkonce_odr hidden noundef i64 @_ZNK11ProfileData9intptr_atEi(ptr noundef nonnull align 8 dereferenceable(16) %0, i32 noundef %1) #1 comdat align 2 {
  %3 = alloca ptr, align 8
  %4 = alloca i32, align 4
  store ptr %0, ptr %3, align 8
  store i32 %1, ptr %4, align 4
  %5 = load ptr, ptr %3, align 8
  %6 = call noundef ptr @_ZNK11ProfileData4dataEv(ptr noundef nonnull align 8 dereferenceable(16) %5)
  %7 = load i32, ptr %4, align 4
  %8 = call noundef i64 @_ZNK10DataLayout7cell_atEi(ptr noundef nonnull align 8 dereferenceable(16) %6, i32 noundef %7)
  ret i64 %8
}

; Function Attrs: mustprogress nounwind uwtable
define linkonce_odr hidden noundef i32 @_ZNK11CounterData5countEv(ptr noundef nonnull align 8 dereferenceable(16) %0) #1 comdat align 2 {
  %2 = alloca ptr, align 8
  %3 = alloca i64, align 8
  store ptr %0, ptr %2, align 8
  %4 = load ptr, ptr %2, align 8
  %5 = call noundef i64 @_ZNK11ProfileData9intptr_atEi(ptr noundef nonnull align 8 dereferenceable(16) %4, i32 noundef 0)
  store i64 %5, ptr %3, align 8
  %6 = load i64, ptr %3, align 8
  %7 = icmp sgt i64 %6, 2147483647
  br i1 %7, label %8, label %9

8:                                                ; preds = %1
  store i64 2147483647, ptr %3, align 8
  br label %14

9:                                                ; preds = %1
  %10 = load i64, ptr %3, align 8
  %11 = icmp slt i64 %10, -2147483648
  br i1 %11, label %12, label %13

12:                                               ; preds = %9
  store i64 -2147483648, ptr %3, align 8
  br label %13

13:                                               ; preds = %12, %9
  br label %14

14:                                               ; preds = %13, %8
  %15 = load i64, ptr %3, align 8
  %16 = trunc i64 %15 to i32
  ret i32 %16
}

; Function Attrs: mustprogress nounwind uwtable
define hidden void @_ZNK11CounterData13print_data_onEP12outputStreamPKc(ptr noundef nonnull align 8 dereferenceable(16) %0, ptr noundef %1, ptr noundef %2) unnamed_addr #1 align 2 {
  %4 = alloca ptr, align 8
  %5 = alloca ptr, align 8
  %6 = alloca ptr, align 8
  store ptr %0, ptr %4, align 8
  store ptr %1, ptr %5, align 8
  store ptr %2, ptr %6, align 8
  %7 = load ptr, ptr %4, align 8
  %8 = load ptr, ptr %5, align 8
  %9 = load ptr, ptr %6, align 8
  call void @_ZNK11ProfileData12print_sharedEP12outputStreamPKcS3_(ptr noundef nonnull align 8 dereferenceable(16) %7, ptr noundef %8, ptr noundef @.str.12, ptr noundef %9)
  %10 = load ptr, ptr %5, align 8
  %11 = call noundef i32 @_ZNK11CounterData5countEv(ptr noundef nonnull align 8 dereferenceable(16) %7)
  call void (ptr, ptr, ...) @_ZN12outputStream8print_crEPKcz(ptr noundef nonnull align 8 dereferenceable(56) %10, ptr noundef @.str.13, i32 noundef %11)
  ret void
}