; Function Attrs: mustprogress nounwind uwtable
define hidden void @_ZNK11CounterData13print_data_onEP12outputStreamPKc(ptr nocapture noundef nonnull readonly align 8 dereferenceable(16) %0, ptr noundef nonnull %1, ptr noundef %2) unnamed_addr #2 align 2 {
  tail call void @_ZNK11ProfileData12print_sharedEP12outputStreamPKcS3_(ptr noundef nonnull align 8 dereferenceable(16) %0, ptr noundef %1, ptr noundef nonnull @.str.12, ptr noundef %2)
  %4 = getelementptr inbounds i8, ptr %0, i64 8
  %5 = load ptr, ptr %4, align 8
  %6 = getelementptr inbounds i8, ptr %5, i64 8
  %7 = load i64, ptr %6, align 8
  %spec.store.select.i = tail call i64 @llvm.smax.i64(i64 %7, i64 -2147483648)
  %.04.i = tail call i64 @llvm.smin.i64(i64 %spec.store.select.i, i64 2147483647)
  %.0.i = trunc nsw i64 %.04.i to i32
  tail call void (ptr, ptr, ...) @_ZN12outputStream8print_crEPKcz(ptr noundef nonnull align 8 dereferenceable(56) %1, ptr noundef nonnull @.str.13, i32 noundef %.0.i) #20
  ret void
}